target datalayout = "e-m:e-p270:32:32-p271:32:32-p272:64:64-i64:64-i128:128-f80:128-n8:16:32:64-S128"
target triple = "x86_64-pc-linux-gnu"

%class.Effect = type <{ %"class.std::vector", %"class.std::vector", %"class.std::vector", i8, i8, [6 x i8] }>
%"class.std::vector" = type { %"struct.std::_Vector_base" }
%"struct.std::_Vector_base" = type { %"struct.std::_Vector_base<const Variable *, std::allocator<const Variable *>>::_Vector_impl" }
%"struct.std::_Vector_base<const Variable *, std::allocator<const Variable *>>::_Vector_impl" = type { %"struct.std::_Vector_base<const Variable *, std::allocator<const Variable *>>::_Vector_impl_data" }
%"struct.std::_Vector_base<const Variable *, std::allocator<const Variable *>>::_Vector_impl_data" = type { ptr, ptr, ptr }

; Function Attrs: mustprogress uwtable
define dso_local void @_ZN6Effect21access_deref_volatileEPK8Variablei(ptr noundef nonnull align 8 dereferenceable(74) %0, ptr noundef %1, i32 noundef %2) #4 align 2 {
  %4 = alloca ptr, align 8
  %5 = alloca ptr, align 8
  %6 = alloca i32, align 4
  store ptr %0, ptr %4, align 8, !tbaa !4
  store ptr %1, ptr %5, align 8, !tbaa !30
  store i32 %2, ptr %6, align 4, !tbaa !77
  %7 = load ptr, ptr %4, align 8
  %8 = call noundef zeroext i1 @_ZN9CGOptions20strict_volatile_ruleEv()
  br i1 %8, label %10, label %9

9:                                                ; preds = %3
  br label %23

10:                                               ; preds = %3
  br label %11

11:                                               ; preds = %20, %10
  %12 = load i32, ptr %6, align 4, !tbaa !77
  %13 = icmp sgt i32 %12, 0
  br i1 %13, label %14, label %23

14:                                               ; preds = %11
  %15 = load ptr, ptr %5, align 8, !tbaa !30
  %16 = load i32, ptr %6, align 4, !tbaa !77
  %17 = call noundef zeroext i1 @_ZNK8Variable23is_volatile_after_derefEi(ptr noundef nonnull align 8 dereferenceable(200) %15, i32 noundef %16)
  br i1 %17, label %18, label %20

18:                                               ; preds = %14
  %19 = getelementptr inbounds nuw %class.Effect, ptr %7, i32 0, i32 4
  store i8 0, ptr %19, align 1, !tbaa !17
  br label %23

20:                                               ; preds = %14
  %21 = load i32, ptr %6, align 4, !tbaa !77
  %22 = add nsw i32 %21, -1
  store i32 %22, ptr %6, align 4, !tbaa !77
  br label %11, !llvm.loop !78

23:                                               ; preds = %9, %18, %11
  ret void
}