; Function Attrs: mustprogress uwtable
define dso_local void @_ZN6Effect21access_deref_volatileEPK8Variablei(ptr noundef nonnull writeonly align 8 captures(none) dereferenceable(74) %0, ptr noundef %1, i32 noundef %2) local_unnamed_addr #5 align 2 {
  %4 = tail call noundef zeroext i1 @_ZN9CGOptions20strict_volatile_ruleEv()
  %5 = icmp sgt i32 %2, 0
  %or.cond = and i1 %5, %4
  br i1 %or.cond, label %.preheader, label %.loopexit

.preheader:                                       ; preds = %3, %9
  %.0 = phi i32 [ %10, %9 ], [ %2, %3 ]
  %6 = tail call noundef zeroext i1 @_ZNK8Variable23is_volatile_after_derefEi(ptr noundef nonnull align 8 dereferenceable(200) %1, i32 noundef %.0)
  br i1 %6, label %7, label %9

7:                                                ; preds = %.preheader
  %8 = getelementptr inbounds nuw i8, ptr %0, i64 73
  store i8 0, ptr %8, align 1, !tbaa !15
  br label %.loopexit

9:                                                ; preds = %.preheader
  %10 = add nsw i32 %.0, -1
  %.old1 = icmp sgt i32 %.0, 1
  br i1 %.old1, label %.preheader, label %.loopexit

.loopexit:                                        ; preds = %9, %3, %7
  ret void
}